target datalayout = "e-m:e-p270:32:32-p271:32:32-p272:64:64-i64:64-i128:128-f80:128-n8:16:32:64-S128"
target triple = "x86_64-pc-linux-gnu"

%struct.archive_read_filter = type { i64, ptr, ptr, ptr, ptr, ptr, ptr, i32, i32, i32, ptr, i64, ptr, i64, ptr, i64, ptr, i64, i8, i8, i8 }
%struct.private_data = type { %struct.lzma_stream, ptr, i64, i64, i8, i8, i8, i32, i64, i64 }
%struct.lzma_stream = type { ptr, i64, i64, ptr, i64, i64, ptr, ptr, ptr, ptr, ptr, ptr, i64, i64, i64, i64, i32, i32 }

; Function Attrs: nounwind uwtable
define internal i32 @xz_filter_close(ptr noundef %0) #0 {
  %2 = alloca ptr, align 8
  %3 = alloca ptr, align 8
  store ptr %0, ptr %2, align 8, !tbaa !13
  call void @llvm.lifetime.start.p0(i64 8, ptr %3) #8
  %4 = load ptr, ptr %2, align 8, !tbaa !13
  %5 = getelementptr inbounds nuw %struct.archive_read_filter, ptr %4, i32 0, i32 5
  %6 = load ptr, ptr %5, align 8, !tbaa !27
  store ptr %6, ptr %3, align 8, !tbaa !23
  %7 = load ptr, ptr %3, align 8, !tbaa !23
  %8 = getelementptr inbounds nuw %struct.private_data, ptr %7, i32 0, i32 0
  call void @lzma_end(ptr noundef %8) #8
  %9 = load ptr, ptr %3, align 8, !tbaa !23
  %10 = getelementptr inbounds nuw %struct.private_data, ptr %9, i32 0, i32 1
  %11 = load ptr, ptr %10, align 8, !tbaa !32
  call void @free(ptr noundef %11) #8
  %12 = load ptr, ptr %3, align 8, !tbaa !23
  call void @free(ptr noundef %12) #8
  call void @llvm.lifetime.end.p0(i64 8, ptr %3) #8
  ret i32 0
}