; Function Attrs: nounwind uwtable
define internal noundef i32 @xz_filter_close(ptr noundef readonly captures(none) %0) #0 {
  %2 = getelementptr inbounds nuw i8, ptr %0, i64 40
  %3 = load ptr, ptr %2, align 8, !tbaa !18
  tail call void @lzma_end(ptr noundef %3) #10
  %4 = getelementptr inbounds nuw i8, ptr %3, i64 136
  %5 = load ptr, ptr %4, align 8, !tbaa !23
  tail call void @free(ptr noundef %5) #10
  tail call void @free(ptr noundef %3) #10
  ret i32 0
}